
math.o:     file format elf64-x86-64


Disassembly of section .text:

0000000000000000 <_Z3addii>:
   0:	f3 0f 1e fa          	endbr64 
   4:	55                   	push   %rbp
   5:	48 89 e5             	mov    %rsp,%rbp
   8:	89 7d fc             	mov    %edi,-0x4(%rbp)
   b:	89 75 f8             	mov    %esi,-0x8(%rbp)
   e:	8b 55 fc             	mov    -0x4(%rbp),%edx
  11:	8b 45 f8             	mov    -0x8(%rbp),%eax
  14:	01 d0                	add    %edx,%eax
  16:	5d                   	pop    %rbp
  17:	c3                   	retq   

0000000000000018 <_Z8subtractii>:
  18:	f3 0f 1e fa          	endbr64 
  1c:	55                   	push   %rbp
  1d:	48 89 e5             	mov    %rsp,%rbp
  20:	89 7d fc             	mov    %edi,-0x4(%rbp)
  23:	89 75 f8             	mov    %esi,-0x8(%rbp)
  26:	8b 45 fc             	mov    -0x4(%rbp),%eax
  29:	2b 45 f8             	sub    -0x8(%rbp),%eax
  2c:	5d                   	pop    %rbp
  2d:	c3                   	retq   

000000000000002e <_Z7absDiffii>:
  2e:	f3 0f 1e fa          	endbr64 
  32:	55                   	push   %rbp
  33:	48 89 e5             	mov    %rsp,%rbp
  36:	89 7d ec             	mov    %edi,-0x14(%rbp)
  39:	89 75 e8             	mov    %esi,-0x18(%rbp)
  3c:	8b 45 ec             	mov    -0x14(%rbp),%eax
  3f:	2b 45 e8             	sub    -0x18(%rbp),%eax
  42:	89 45 f8             	mov    %eax,-0x8(%rbp)
  45:	83 7d f8 00          	cmpl   $0x0,-0x8(%rbp)
  49:	78 05                	js     50 <_Z7absDiffii+0x22>
  4b:	8b 45 f8             	mov    -0x8(%rbp),%eax
  4e:	eb 1a                	jmp    6a <_Z7absDiffii+0x3c>
  50:	8b 45 ec             	mov    -0x14(%rbp),%eax
  53:	0f af 45 e8          	imul   -0x18(%rbp),%eax
  57:	89 45 fc             	mov    %eax,-0x4(%rbp)
  5a:	8b 55 fc             	mov    -0x4(%rbp),%edx
  5d:	8b 45 e8             	mov    -0x18(%rbp),%eax
  60:	01 d0                	add    %edx,%eax
  62:	89 45 ec             	mov    %eax,-0x14(%rbp)
  65:	8b 45 f8             	mov    -0x8(%rbp),%eax
  68:	f7 d8                	neg    %eax
  6a:	5d                   	pop    %rbp
  6b:	c3                   	retq   

000000000000006c <_Z5isPosi>:
  6c:	f3 0f 1e fa          	endbr64 
  70:	55                   	push   %rbp
  71:	48 89 e5             	mov    %rsp,%rbp
  74:	89 7d fc             	mov    %edi,-0x4(%rbp)
  77:	83 7d fc 00          	cmpl   $0x0,-0x4(%rbp)
  7b:	7e 07                	jle    84 <_Z5isPosi+0x18>
  7d:	b8 01 00 00 00       	mov    $0x1,%eax
  82:	eb 05                	jmp    89 <_Z5isPosi+0x1d>
  84:	b8 00 00 00 00       	mov    $0x0,%eax
  89:	5d                   	pop    %rbp
  8a:	c3                   	retq   

000000000000008b <_Z6isLoopi>:
  8b:	f3 0f 1e fa          	endbr64 
  8f:	55                   	push   %rbp
  90:	48 89 e5             	mov    %rsp,%rbp
  93:	89 7d ec             	mov    %edi,-0x14(%rbp)
  96:	c7 45 f8 00 00 00 00 	movl   $0x0,-0x8(%rbp)
  9d:	c7 45 fc 00 00 00 00 	movl   $0x0,-0x4(%rbp)
  a4:	8b 45 fc             	mov    -0x4(%rbp),%eax
  a7:	3b 45 ec             	cmp    -0x14(%rbp),%eax
  aa:	7d 0a                	jge    b6 <_Z6isLoopi+0x2b>
  ac:	83 45 f8 01          	addl   $0x1,-0x8(%rbp)
  b0:	83 45 fc 01          	addl   $0x1,-0x4(%rbp)
  b4:	eb ee                	jmp    a4 <_Z6isLoopi+0x19>
  b6:	8b 45 f8             	mov    -0x8(%rbp),%eax
  b9:	5d                   	pop    %rbp
  ba:	c3                   	retq   

00000000000000bb <_Z41__static_initialization_and_destruction_0ii>:
  bb:	f3 0f 1e fa          	endbr64 
  bf:	55                   	push   %rbp
  c0:	48 89 e5             	mov    %rsp,%rbp
  c3:	48 83 ec 10          	sub    $0x10,%rsp
  c7:	89 7d fc             	mov    %edi,-0x4(%rbp)
  ca:	89 75 f8             	mov    %esi,-0x8(%rbp)
  cd:	83 7d fc 01          	cmpl   $0x1,-0x4(%rbp)
  d1:	75 32                	jne    105 <_Z41__static_initialization_and_destruction_0ii+0x4a>
  d3:	81 7d f8 ff ff 00 00 	cmpl   $0xffff,-0x8(%rbp)
  da:	75 29                	jne    105 <_Z41__static_initialization_and_destruction_0ii+0x4a>
  dc:	48 8d 3d 00 00 00 00 	lea    0x0(%rip),%rdi        # e3 <_Z41__static_initialization_and_destruction_0ii+0x28>
  e3:	e8 00 00 00 00       	callq  e8 <_Z41__static_initialization_and_destruction_0ii+0x2d>
  e8:	48 8d 15 00 00 00 00 	lea    0x0(%rip),%rdx        # ef <_Z41__static_initialization_and_destruction_0ii+0x34>
  ef:	48 8d 35 00 00 00 00 	lea    0x0(%rip),%rsi        # f6 <_Z41__static_initialization_and_destruction_0ii+0x3b>
  f6:	48 8b 05 00 00 00 00 	mov    0x0(%rip),%rax        # fd <_Z41__static_initialization_and_destruction_0ii+0x42>
  fd:	48 89 c7             	mov    %rax,%rdi
 100:	e8 00 00 00 00       	callq  105 <_Z41__static_initialization_and_destruction_0ii+0x4a>
 105:	90                   	nop
 106:	c9                   	leaveq 
 107:	c3                   	retq   

0000000000000108 <_GLOBAL__sub_I_math.cpp>:
 108:	f3 0f 1e fa          	endbr64 
 10c:	55                   	push   %rbp
 10d:	48 89 e5             	mov    %rsp,%rbp
 110:	be ff ff 00 00       	mov    $0xffff,%esi
 115:	bf 01 00 00 00       	mov    $0x1,%edi
 11a:	e8 9c ff ff ff       	callq  bb <_Z41__static_initialization_and_destruction_0ii>
 11f:	5d                   	pop    %rbp
 120:	c3                   	retq   

Disassembly of section .bss:

0000000000000000 <_ZStL8__ioinit>:
	...

Disassembly of section .rodata:

0000000000000000 <_ZStL19piecewise_construct>:
	...

Disassembly of section .init_array:

0000000000000000 <.init_array>:
	...

Disassembly of section .comment:

0000000000000000 <.comment>:
   0:	00 47 43             	add    %al,0x43(%rdi)
   3:	43 3a 20             	rex.XB cmp (%r8),%spl
   6:	28 55 62             	sub    %dl,0x62(%rbp)
   9:	75 6e                	jne    79 <_Z5isPosi+0xd>
   b:	74 75                	je     82 <_Z5isPosi+0x16>
   d:	20 39                	and    %bh,(%rcx)
   f:	2e 33 2e             	xor    %cs:(%rsi),%ebp
  12:	30 2d 31 37 75 62    	xor    %ch,0x62753731(%rip)        # 62753749 <_GLOBAL__sub_I_math.cpp+0x62753641>
  18:	75 6e                	jne    88 <_Z5isPosi+0x1c>
  1a:	74 75                	je     91 <_Z6isLoopi+0x6>
  1c:	31 7e 32             	xor    %edi,0x32(%rsi)
  1f:	30 2e                	xor    %ch,(%rsi)
  21:	30 34 29             	xor    %dh,(%rcx,%rbp,1)
  24:	20 39                	and    %bh,(%rcx)
  26:	2e 33 2e             	xor    %cs:(%rsi),%ebp
  29:	30 00                	xor    %al,(%rax)

Disassembly of section .note.gnu.property:

0000000000000000 <.note.gnu.property>:
   0:	04 00                	add    $0x0,%al
   2:	00 00                	add    %al,(%rax)
   4:	10 00                	adc    %al,(%rax)
   6:	00 00                	add    %al,(%rax)
   8:	05 00 00 00 47       	add    $0x47000000,%eax
   d:	4e 55                	rex.WRX push %rbp
   f:	00 02                	add    %al,(%rdx)
  11:	00 00                	add    %al,(%rax)
  13:	c0 04 00 00          	rolb   $0x0,(%rax,%rax,1)
  17:	00 03                	add    %al,(%rbx)
  19:	00 00                	add    %al,(%rax)
  1b:	00 00                	add    %al,(%rax)
  1d:	00 00                	add    %al,(%rax)
	...

Disassembly of section .eh_frame:

0000000000000000 <.eh_frame>:
   0:	14 00                	adc    $0x0,%al
   2:	00 00                	add    %al,(%rax)
   4:	00 00                	add    %al,(%rax)
   6:	00 00                	add    %al,(%rax)
   8:	01 7a 52             	add    %edi,0x52(%rdx)
   b:	00 01                	add    %al,(%rcx)
   d:	78 10                	js     1f <.eh_frame+0x1f>
   f:	01 1b                	add    %ebx,(%rbx)
  11:	0c 07                	or     $0x7,%al
  13:	08 90 01 00 00 1c    	or     %dl,0x1c000001(%rax)
  19:	00 00                	add    %al,(%rax)
  1b:	00 1c 00             	add    %bl,(%rax,%rax,1)
  1e:	00 00                	add    %al,(%rax)
  20:	00 00                	add    %al,(%rax)
  22:	00 00                	add    %al,(%rax)
  24:	18 00                	sbb    %al,(%rax)
  26:	00 00                	add    %al,(%rax)
  28:	00 45 0e             	add    %al,0xe(%rbp)
  2b:	10 86 02 43 0d 06    	adc    %al,0x60d4302(%rsi)
  31:	4f 0c 07             	rex.WRXB or $0x7,%al
  34:	08 00                	or     %al,(%rax)
  36:	00 00                	add    %al,(%rax)
  38:	1c 00                	sbb    $0x0,%al
  3a:	00 00                	add    %al,(%rax)
  3c:	3c 00                	cmp    $0x0,%al
  3e:	00 00                	add    %al,(%rax)
  40:	00 00                	add    %al,(%rax)
  42:	00 00                	add    %al,(%rax)
  44:	16                   	(bad)  
  45:	00 00                	add    %al,(%rax)
  47:	00 00                	add    %al,(%rax)
  49:	45 0e                	rex.RB (bad) 
  4b:	10 86 02 43 0d 06    	adc    %al,0x60d4302(%rsi)
  51:	4d 0c 07             	rex.WRB or $0x7,%al
  54:	08 00                	or     %al,(%rax)
  56:	00 00                	add    %al,(%rax)
  58:	1c 00                	sbb    $0x0,%al
  5a:	00 00                	add    %al,(%rax)
  5c:	5c                   	pop    %rsp
  5d:	00 00                	add    %al,(%rax)
  5f:	00 00                	add    %al,(%rax)
  61:	00 00                	add    %al,(%rax)
  63:	00 3e                	add    %bh,(%rsi)
  65:	00 00                	add    %al,(%rax)
  67:	00 00                	add    %al,(%rax)
  69:	45 0e                	rex.RB (bad) 
  6b:	10 86 02 43 0d 06    	adc    %al,0x60d4302(%rsi)
  71:	75 0c                	jne    7f <.eh_frame+0x7f>
  73:	07                   	(bad)  
  74:	08 00                	or     %al,(%rax)
  76:	00 00                	add    %al,(%rax)
  78:	1c 00                	sbb    $0x0,%al
  7a:	00 00                	add    %al,(%rax)
  7c:	7c 00                	jl     7e <.eh_frame+0x7e>
  7e:	00 00                	add    %al,(%rax)
  80:	00 00                	add    %al,(%rax)
  82:	00 00                	add    %al,(%rax)
  84:	1f                   	(bad)  
  85:	00 00                	add    %al,(%rax)
  87:	00 00                	add    %al,(%rax)
  89:	45 0e                	rex.RB (bad) 
  8b:	10 86 02 43 0d 06    	adc    %al,0x60d4302(%rsi)
  91:	56                   	push   %rsi
  92:	0c 07                	or     $0x7,%al
  94:	08 00                	or     %al,(%rax)
  96:	00 00                	add    %al,(%rax)
  98:	1c 00                	sbb    $0x0,%al
  9a:	00 00                	add    %al,(%rax)
  9c:	9c                   	pushfq 
  9d:	00 00                	add    %al,(%rax)
  9f:	00 00                	add    %al,(%rax)
  a1:	00 00                	add    %al,(%rax)
  a3:	00 30                	add    %dh,(%rax)
  a5:	00 00                	add    %al,(%rax)
  a7:	00 00                	add    %al,(%rax)
  a9:	45 0e                	rex.RB (bad) 
  ab:	10 86 02 43 0d 06    	adc    %al,0x60d4302(%rsi)
  b1:	67 0c 07             	addr32 or $0x7,%al
  b4:	08 00                	or     %al,(%rax)
  b6:	00 00                	add    %al,(%rax)
  b8:	1c 00                	sbb    $0x0,%al
  ba:	00 00                	add    %al,(%rax)
  bc:	bc 00 00 00 00       	mov    $0x0,%esp
  c1:	00 00                	add    %al,(%rax)
  c3:	00 4d 00             	add    %cl,0x0(%rbp)
  c6:	00 00                	add    %al,(%rax)
  c8:	00 45 0e             	add    %al,0xe(%rbp)
  cb:	10 86 02 43 0d 06    	adc    %al,0x60d4302(%rsi)
  d1:	02 44 0c 07          	add    0x7(%rsp,%rcx,1),%al
  d5:	08 00                	or     %al,(%rax)
  d7:	00 1c 00             	add    %bl,(%rax,%rax,1)
  da:	00 00                	add    %al,(%rax)
  dc:	dc 00                	faddl  (%rax)
  de:	00 00                	add    %al,(%rax)
  e0:	00 00                	add    %al,(%rax)
  e2:	00 00                	add    %al,(%rax)
  e4:	19 00                	sbb    %eax,(%rax)
  e6:	00 00                	add    %al,(%rax)
  e8:	00 45 0e             	add    %al,0xe(%rbp)
  eb:	10 86 02 43 0d 06    	adc    %al,0x60d4302(%rsi)
  f1:	50                   	push   %rax
  f2:	0c 07                	or     $0x7,%al
  f4:	08 00                	or     %al,(%rax)
	...
