
math.o:     file format elf64-x86-64


Disassembly of section .text:

0000000000000149 <_Z3addii>:
 149:	55                   	push   %rbp
 14a:	48 89 e5             	mov    %rsp,%rbp
 14d:	89 7d fc             	mov    %edi,-0x4(%rbp)
 150:	89 75 f8             	mov    %esi,-0x8(%rbp)
 153:	8b 55 fc             	mov    -0x4(%rbp),%edx
 156:	8b 45 f8             	mov    -0x8(%rbp),%eax
 159:	01 d0                	add    %edx,%eax
 15b:	5d                   	pop    %rbp
 15c:	c3                   	retq   

000000000000015d <_Z8subtractii>:
 15d:	55                   	push   %rbp
 15e:	48 89 e5             	mov    %rsp,%rbp
 161:	89 7d fc             	mov    %edi,-0x4(%rbp)
 164:	89 75 f8             	mov    %esi,-0x8(%rbp)
 167:	8b 45 fc             	mov    -0x4(%rbp),%eax
 16a:	2b 45 f8             	sub    -0x8(%rbp),%eax
 16d:	5d                   	pop    %rbp
 16e:	c3                   	retq   

000000000000016f <_Z7absDiffii>:
 16f:	55                   	push   %rbp
 170:	48 89 e5             	mov    %rsp,%rbp
 173:	89 7d ec             	mov    %edi,-0x14(%rbp)
 176:	89 75 e8             	mov    %esi,-0x18(%rbp)
 179:	8b 45 ec             	mov    -0x14(%rbp),%eax
 17c:	2b 45 e8             	sub    -0x18(%rbp),%eax
 17f:	89 45 f8             	mov    %eax,-0x8(%rbp)
 182:	83 7d f8 00          	cmpl   $0x0,-0x8(%rbp)
 186:	78 05                	js     18d <_Z7absDiffii+0x1e>
 188:	8b 45 f8             	mov    -0x8(%rbp),%eax
 18b:	eb 1a                	jmp    1a7 <_Z7absDiffii+0x38>
 18d:	8b 45 ec             	mov    -0x14(%rbp),%eax
 190:	0f af 45 e8          	imul   -0x18(%rbp),%eax
 194:	89 45 fc             	mov    %eax,-0x4(%rbp)
 197:	8b 55 fc             	mov    -0x4(%rbp),%edx
 19a:	8b 45 e8             	mov    -0x18(%rbp),%eax
 19d:	01 d0                	add    %edx,%eax
 19f:	89 45 ec             	mov    %eax,-0x14(%rbp)
 1a2:	8b 45 f8             	mov    -0x8(%rbp),%eax
 1a5:	f7 d8                	neg    %eax
 1a7:	5d                   	pop    %rbp
 1a8:	c3                   	retq   

00000000000001a9 <_Z5isPosi>:
 1a9:	55                   	push   %rbp
 1aa:	48 89 e5             	mov    %rsp,%rbp
 1ad:	89 7d fc             	mov    %edi,-0x4(%rbp)
 1b0:	83 7d fc 00          	cmpl   $0x0,-0x4(%rbp)
 1b4:	7e 07                	jle    1bd <_Z5isPosi+0x14>
 1b6:	b8 01 00 00 00       	mov    $0x1,%eax
 1bb:	eb 05                	jmp    1c2 <_Z5isPosi+0x19>
 1bd:	b8 00 00 00 00       	mov    $0x0,%eax
 1c2:	5d                   	pop    %rbp
 1c3:	c3                   	retq   

00000000000001c4 <_Z6isLoopi>:
 1c4:	55                   	push   %rbp
 1c5:	48 89 e5             	mov    %rsp,%rbp
 1c8:	89 7d ec             	mov    %edi,-0x14(%rbp)
 1cb:	c7 45 f8 00 00 00 00 	movl   $0x0,-0x8(%rbp)
 1d2:	c7 45 fc 00 00 00 00 	movl   $0x0,-0x4(%rbp)
 1d9:	8b 45 fc             	mov    -0x4(%rbp),%eax
 1dc:	3b 45 ec             	cmp    -0x14(%rbp),%eax
 1df:	7d 0a                	jge    1eb <_Z6isLoopi+0x27>
 1e1:	83 45 f8 01          	addl   $0x1,-0x8(%rbp)
 1e5:	83 45 fc 01          	addl   $0x1,-0x4(%rbp)
 1e9:	eb ee                	jmp    1d9 <_Z6isLoopi+0x15>
 1eb:	8b 45 f8             	mov    -0x8(%rbp),%eax
 1ee:	5d                   	pop    %rbp
 1ef:	c3                   	retq   

00000000000001f0 <_Z41__static_initialization_and_destruction_0ii>:
 1f0:	55                   	push   %rbp
 1f1:	48 89 e5             	mov    %rsp,%rbp
 1f4:	48 83 ec 10          	sub    $0x10,%rsp
 1f8:	89 7d fc             	mov    %edi,-0x4(%rbp)
 1fb:	89 75 f8             	mov    %esi,-0x8(%rbp)
 1fe:	83 7d fc 01          	cmpl   $0x1,-0x4(%rbp)
 202:	75 32                	jne    236 <_Z41__static_initialization_and_destruction_0ii+0x46>
 204:	81 7d f8 ff ff 00 00 	cmpl   $0xffff,-0x8(%rbp)
 20b:	75 29                	jne    236 <_Z41__static_initialization_and_destruction_0ii+0x46>
 20d:	48 8d 3d 00 00 00 00 	lea    0x0(%rip),%rdi        # 214 <_Z41__static_initialization_and_destruction_0ii+0x24>
 214:	e8 00 00 00 00       	callq  219 <_Z41__static_initialization_and_destruction_0ii+0x29>
 219:	48 8d 15 00 00 00 00 	lea    0x0(%rip),%rdx        # 220 <_Z41__static_initialization_and_destruction_0ii+0x30>
 220:	48 8d 35 00 00 00 00 	lea    0x0(%rip),%rsi        # 227 <_Z41__static_initialization_and_destruction_0ii+0x37>
 227:	48 8b 05 00 00 00 00 	mov    0x0(%rip),%rax        # 22e <_Z41__static_initialization_and_destruction_0ii+0x3e>
 22e:	48 89 c7             	mov    %rax,%rdi
 231:	e8 00 00 00 00       	callq  236 <_Z41__static_initialization_and_destruction_0ii+0x46>
 236:	90                   	nop
 237:	c9                   	leaveq 
 238:	c3                   	retq   

0000000000000239 <_GLOBAL__sub_I_math.cpp>:
 239:	55                   	push   %rbp
 23a:	48 89 e5             	mov    %rsp,%rbp
 23d:	be ff ff 00 00       	mov    $0xffff,%esi
 242:	bf 01 00 00 00       	mov    $0x1,%edi
 247:	e8 a4 ff ff ff       	callq  1f0 <_Z41__static_initialization_and_destruction_0ii>
 24c:	5d                   	pop    %rbp
 24d:	c3                   	retq   
